; Function Attrs: null_pointer_is_valid sspstrong uwtable
define internal fastcc void @decode_GIAS_Request_register_callback(ptr noundef %0, ptr noundef %1, ptr noundef %2, ptr noundef %3, ptr noundef %4, ptr noundef readonly captures(none) %5, i1 noundef zeroext %6) unnamed_addr #0 {
  %8 = getelementptr inbounds nuw i8, ptr %5, i64 7
  %9 = load i8, ptr %8, align 1
  switch i8 %9, label %18 [
    i8 0, label %10
    i8 1, label %11
  ]

10:                                               ; preds = %7
  tail call void @get_CDR_object(ptr noundef %0, ptr noundef %1, ptr noundef %2, ptr noundef %4, i1 noundef zeroext %6, i32 noundef 12)
  br label %21

11:                                               ; preds = %7
  %12 = getelementptr inbounds nuw i8, ptr %5, i64 16
  %13 = load i32, ptr %12, align 8
  switch i32 %13, label %16 [
    i32 0, label %14
    i32 1, label %21
  ]

14:                                               ; preds = %11
  %15 = load i32, ptr @hf_GIAS_Request_register_callback_return, align 4
  tail call void @giop_add_CDR_string(ptr noundef %2, ptr noundef %0, ptr noundef %4, i1 noundef zeroext %6, i32 noundef 12, i32 noundef %15)
  br label %21

16:                                               ; preds = %11
  %17 = tail call ptr (ptr, ptr, ptr, ptr, ...) @expert_add_info_format(ptr noundef %1, ptr noundef %3, ptr noundef nonnull @ei_gias_unknown_exception, ptr noundef nonnull @.str.826, i32 noundef %13)
  br label %21

18:                                               ; preds = %7
  %19 = zext i8 %9 to i32
  %20 = tail call ptr (ptr, ptr, ptr, ptr, ...) @expert_add_info_format(ptr noundef %1, ptr noundef %3, ptr noundef nonnull @ei_gias_unknown_giop_msg, ptr noundef nonnull @.str.827, i32 noundef %19)
  br label %21

21:                                               ; preds = %11, %14, %16, %18, %10
  ret void
}